target datalayout = "e-m:e-p270:32:32-p271:32:32-p272:64:64-i64:64-i128:128-f80:128-n8:16:32:64-S128"
target triple = "x86_64-pc-linux-gnu"

%struct._lv_bar_t = type { %struct._lv_obj_t, i32, i32, i32, i32, %struct.lv_area_t, i8, %struct._lv_bar_anim_t, %struct._lv_bar_anim_t, i8 }
%struct._lv_obj_t = type { ptr, ptr, ptr, ptr, ptr, %struct.lv_area_t, i32, i16, i16 }
%struct.lv_area_t = type { i32, i32, i32, i32 }
%struct._lv_bar_anim_t = type { ptr, i32, i32, i32 }
%struct._lv_anim_t = type { ptr, ptr, ptr, ptr, ptr, ptr, ptr, ptr, ptr, i32, i32, i32, i32, i32, i32, i32, i32, i32, %union._lv_anim_path_para_t, i32, i8 }
%union._lv_anim_path_para_t = type { %struct.lv_anim_bezier3_para_t }
%struct.lv_anim_bezier3_para_t = type { i16, i16, i16, i16 }
%union.lv_style_value_t = type { ptr }

; Function Attrs: inlinehint nounwind uwtable
define internal i32 @lv_obj_get_style_anim_duration(ptr noundef %0, i32 noundef %1) #3 {
  %3 = alloca ptr, align 8
  %4 = alloca i32, align 4
  %5 = alloca %union.lv_style_value_t, align 8
  store ptr %0, ptr %3, align 8, !tbaa !3
  store i32 %1, ptr %4, align 4, !tbaa !23
  call void @llvm.lifetime.start.p0(i64 8, ptr %5) #5
  %6 = load ptr, ptr %3, align 8, !tbaa !3
  %7 = load i32, ptr %4, align 4, !tbaa !23
  %8 = call ptr @lv_obj_get_style_prop(ptr noundef %6, i32 noundef %7, i8 noundef zeroext 100)
  %9 = getelementptr inbounds nuw %union.lv_style_value_t, ptr %5, i32 0, i32 0
  store ptr %8, ptr %9, align 8
  %10 = load i32, ptr %5, align 8, !tbaa !34
  call void @llvm.lifetime.end.p0(i64 8, ptr %5) #5
  ret i32 %10
}

; Function Attrs: nounwind uwtable
define internal void @lv_bar_init_anim(ptr noundef %0, ptr noundef %1) #0 {
  %3 = alloca ptr, align 8
  %4 = alloca ptr, align 8
  store ptr %0, ptr %3, align 8, !tbaa !3
  store ptr %1, ptr %4, align 8, !tbaa !3
  %5 = load ptr, ptr %3, align 8, !tbaa !3
  %6 = load ptr, ptr %4, align 8, !tbaa !3
  %7 = getelementptr inbounds nuw %struct._lv_bar_anim_t, ptr %6, i32 0, i32 0
  store ptr %5, ptr %7, align 8, !tbaa !33
  %8 = load ptr, ptr %4, align 8, !tbaa !3
  %9 = getelementptr inbounds nuw %struct._lv_bar_anim_t, ptr %8, i32 0, i32 1
  store i32 0, ptr %9, align 8, !tbaa !25
  %10 = load ptr, ptr %4, align 8, !tbaa !3
  %11 = getelementptr inbounds nuw %struct._lv_bar_anim_t, ptr %10, i32 0, i32 2
  store i32 0, ptr %11, align 4, !tbaa !26
  %12 = load ptr, ptr %4, align 8, !tbaa !3
  %13 = getelementptr inbounds nuw %struct._lv_bar_anim_t, ptr %12, i32 0, i32 3
  store i32 -1, ptr %13, align 8, !tbaa !24
  ret void
}

; Function Attrs: nounwind uwtable
define internal void @lv_bar_set_value_with_anim(ptr noundef %0, i32 noundef %1, ptr noundef %2, ptr noundef %3, i32 noundef %4) #0 {
  %6 = alloca ptr, align 8
  %7 = alloca i32, align 4
  %8 = alloca ptr, align 8
  %9 = alloca ptr, align 8
  %10 = alloca i32, align 4
  %11 = alloca %struct._lv_anim_t, align 8
  store ptr %0, ptr %6, align 8, !tbaa !3
  store i32 %1, ptr %7, align 4, !tbaa !23
  store ptr %2, ptr %8, align 8, !tbaa !3
  store ptr %3, ptr %9, align 8, !tbaa !3
  store i32 %4, ptr %10, align 4, !tbaa !23
  %12 = load i32, ptr %10, align 4, !tbaa !23
  %13 = icmp eq i32 %12, 0
  br i1 %13, label %14, label %26

14:                                               ; preds = %5
  %15 = load ptr, ptr %9, align 8, !tbaa !3
  %16 = call zeroext i1 @lv_anim_delete(ptr noundef %15, ptr noundef null)
  %17 = load ptr, ptr %9, align 8, !tbaa !3
  %18 = getelementptr inbounds nuw %struct._lv_bar_anim_t, ptr %17, i32 0, i32 3
  store i32 -1, ptr %18, align 8, !tbaa !24
  %19 = load i32, ptr %7, align 4, !tbaa !23
  %20 = load ptr, ptr %8, align 8, !tbaa !3
  store i32 %19, ptr %20, align 4, !tbaa !23
  %21 = load ptr, ptr %6, align 8, !tbaa !3
  call void @lv_obj_invalidate(ptr noundef %21)
  %22 = load ptr, ptr %9, align 8, !tbaa !3
  %23 = call zeroext i1 @lv_anim_delete(ptr noundef %22, ptr noundef null)
  %24 = load ptr, ptr %6, align 8, !tbaa !3
  %25 = load ptr, ptr %9, align 8, !tbaa !3
  call void @lv_bar_init_anim(ptr noundef %24, ptr noundef %25)
  br label %57

26:                                               ; preds = %5
  %27 = load ptr, ptr %9, align 8, !tbaa !3
  %28 = getelementptr inbounds nuw %struct._lv_bar_anim_t, ptr %27, i32 0, i32 3
  %29 = load i32, ptr %28, align 8, !tbaa !24
  %30 = icmp eq i32 %29, -1
  br i1 %30, label %31, label %39

31:                                               ; preds = %26
  %32 = load ptr, ptr %8, align 8, !tbaa !3
  %33 = load i32, ptr %32, align 4, !tbaa !23
  %34 = load ptr, ptr %9, align 8, !tbaa !3
  %35 = getelementptr inbounds nuw %struct._lv_bar_anim_t, ptr %34, i32 0, i32 1
  store i32 %33, ptr %35, align 8, !tbaa !25
  %36 = load i32, ptr %7, align 4, !tbaa !23
  %37 = load ptr, ptr %9, align 8, !tbaa !3
  %38 = getelementptr inbounds nuw %struct._lv_bar_anim_t, ptr %37, i32 0, i32 2
  store i32 %36, ptr %38, align 4, !tbaa !26
  br label %48

39:                                               ; preds = %26
  %40 = load ptr, ptr %9, align 8, !tbaa !3
  %41 = getelementptr inbounds nuw %struct._lv_bar_anim_t, ptr %40, i32 0, i32 2
  %42 = load i32, ptr %41, align 4, !tbaa !26
  %43 = load ptr, ptr %9, align 8, !tbaa !3
  %44 = getelementptr inbounds nuw %struct._lv_bar_anim_t, ptr %43, i32 0, i32 1
  store i32 %42, ptr %44, align 8, !tbaa !25
  %45 = load i32, ptr %7, align 4, !tbaa !23
  %46 = load ptr, ptr %9, align 8, !tbaa !3
  %47 = getelementptr inbounds nuw %struct._lv_bar_anim_t, ptr %46, i32 0, i32 2
  store i32 %45, ptr %47, align 4, !tbaa !26
  br label %48

48:                                               ; preds = %39, %31
  %49 = load i32, ptr %7, align 4, !tbaa !23
  %50 = load ptr, ptr %8, align 8, !tbaa !3
  store i32 %49, ptr %50, align 4, !tbaa !23
  %51 = load ptr, ptr %9, align 8, !tbaa !3
  %52 = call zeroext i1 @lv_anim_delete(ptr noundef %51, ptr noundef null)
  call void @llvm.lifetime.start.p0(i64 128, ptr %11) #5
  call void @lv_anim_init(ptr noundef %11)
  %53 = load ptr, ptr %9, align 8, !tbaa !3
  call void @lv_anim_set_var(ptr noundef %11, ptr noundef %53)
  call void @lv_anim_set_exec_cb(ptr noundef %11, ptr noundef @lv_bar_anim)
  call void @lv_anim_set_values(ptr noundef %11, i32 noundef 0, i32 noundef 256)
  call void @lv_anim_set_completed_cb(ptr noundef %11, ptr noundef @lv_bar_anim_completed)
  %54 = load ptr, ptr %6, align 8, !tbaa !3
  %55 = call i32 @lv_obj_get_style_anim_duration(ptr noundef %54, i32 noundef 0)
  call void @lv_anim_set_duration(ptr noundef %11, i32 noundef %55)
  %56 = call ptr @lv_anim_start(ptr noundef %11)
  call void @llvm.lifetime.end.p0(i64 128, ptr %11) #5
  br label %57

57:                                               ; preds = %48, %14
  ret void
}

; Function Attrs: nounwind uwtable
define void @lv_bar_set_value(ptr noundef %0, i32 noundef %1, i32 noundef %2) #0 {
  %4 = alloca ptr, align 8
  %5 = alloca i32, align 4
  %6 = alloca i32, align 4
  %7 = alloca ptr, align 8
  %8 = alloca i32, align 4
  store ptr %0, ptr %4, align 8, !tbaa !3
  store i32 %1, ptr %5, align 4, !tbaa !23
  store i32 %2, ptr %6, align 4, !tbaa !23
  br label %9

9:                                                ; preds = %3
  br label %10

10:                                               ; preds = %9
  call void @llvm.lifetime.start.p0(i64 8, ptr %7) #5
  %11 = load ptr, ptr %4, align 8, !tbaa !3
  store ptr %11, ptr %7, align 8, !tbaa !3
  %12 = load ptr, ptr %7, align 8, !tbaa !3
  %13 = getelementptr inbounds nuw %struct._lv_bar_t, ptr %12, i32 0, i32 1
  %14 = load i32, ptr %13, align 8, !tbaa !17
  %15 = load i32, ptr %5, align 4, !tbaa !23
  %16 = icmp eq i32 %14, %15
  br i1 %16, label %17, label %18

17:                                               ; preds = %10
  store i32 1, ptr %8, align 4
  br label %83

18:                                               ; preds = %10
  %19 = load ptr, ptr %7, align 8, !tbaa !3
  %20 = getelementptr inbounds nuw %struct._lv_bar_t, ptr %19, i32 0, i32 2
  %21 = load i32, ptr %20, align 4, !tbaa !7
  %22 = load i32, ptr %5, align 4, !tbaa !23
  %23 = load ptr, ptr %7, align 8, !tbaa !3
  %24 = getelementptr inbounds nuw %struct._lv_bar_t, ptr %23, i32 0, i32 3
  %25 = load i32, ptr %24, align 8, !tbaa !15
  %26 = icmp slt i32 %22, %25
  br i1 %26, label %27, label %29

27:                                               ; preds = %18
  %28 = load i32, ptr %5, align 4, !tbaa !23
  br label %33

29:                                               ; preds = %18
  %30 = load ptr, ptr %7, align 8, !tbaa !3
  %31 = getelementptr inbounds nuw %struct._lv_bar_t, ptr %30, i32 0, i32 3
  %32 = load i32, ptr %31, align 8, !tbaa !15
  br label %33

33:                                               ; preds = %29, %27
  %34 = phi i32 [ %28, %27 ], [ %32, %29 ]
  %35 = icmp sgt i32 %21, %34
  br i1 %35, label %36, label %40

36:                                               ; preds = %33
  %37 = load ptr, ptr %7, align 8, !tbaa !3
  %38 = getelementptr inbounds nuw %struct._lv_bar_t, ptr %37, i32 0, i32 2
  %39 = load i32, ptr %38, align 4, !tbaa !7
  br label %54

40:                                               ; preds = %33
  %41 = load i32, ptr %5, align 4, !tbaa !23
  %42 = load ptr, ptr %7, align 8, !tbaa !3
  %43 = getelementptr inbounds nuw %struct._lv_bar_t, ptr %42, i32 0, i32 3
  %44 = load i32, ptr %43, align 8, !tbaa !15
  %45 = icmp slt i32 %41, %44
  br i1 %45, label %46, label %48

46:                                               ; preds = %40
  %47 = load i32, ptr %5, align 4, !tbaa !23
  br label %52

48:                                               ; preds = %40
  %49 = load ptr, ptr %7, align 8, !tbaa !3
  %50 = getelementptr inbounds nuw %struct._lv_bar_t, ptr %49, i32 0, i32 3
  %51 = load i32, ptr %50, align 8, !tbaa !15
  br label %52

52:                                               ; preds = %48, %46
  %53 = phi i32 [ %47, %46 ], [ %51, %48 ]
  br label %54

54:                                               ; preds = %52, %36
  %55 = phi i32 [ %39, %36 ], [ %53, %52 ]
  store i32 %55, ptr %5, align 4, !tbaa !23
  %56 = load i32, ptr %5, align 4, !tbaa !23
  %57 = load ptr, ptr %7, align 8, !tbaa !3
  %58 = getelementptr inbounds nuw %struct._lv_bar_t, ptr %57, i32 0, i32 4
  %59 = load i32, ptr %58, align 4, !tbaa !16
  %60 = icmp slt i32 %56, %59
  br i1 %60, label %61, label %65

61:                                               ; preds = %54
  %62 = load ptr, ptr %7, align 8, !tbaa !3
  %63 = getelementptr inbounds nuw %struct._lv_bar_t, ptr %62, i32 0, i32 4
  %64 = load i32, ptr %63, align 4, !tbaa !16
  br label %67

65:                                               ; preds = %54
  %66 = load i32, ptr %5, align 4, !tbaa !23
  br label %67

67:                                               ; preds = %65, %61
  %68 = phi i32 [ %64, %61 ], [ %66, %65 ]
  store i32 %68, ptr %5, align 4, !tbaa !23
  %69 = load ptr, ptr %7, align 8, !tbaa !3
  %70 = getelementptr inbounds nuw %struct._lv_bar_t, ptr %69, i32 0, i32 1
  %71 = load i32, ptr %70, align 8, !tbaa !17
  %72 = load i32, ptr %5, align 4, !tbaa !23
  %73 = icmp eq i32 %71, %72
  br i1 %73, label %74, label %75

74:                                               ; preds = %67
  store i32 1, ptr %8, align 4
  br label %83

75:                                               ; preds = %67
  %76 = load ptr, ptr %4, align 8, !tbaa !3
  %77 = load i32, ptr %5, align 4, !tbaa !23
  %78 = load ptr, ptr %7, align 8, !tbaa !3
  %79 = getelementptr inbounds nuw %struct._lv_bar_t, ptr %78, i32 0, i32 1
  %80 = load ptr, ptr %7, align 8, !tbaa !3
  %81 = getelementptr inbounds nuw %struct._lv_bar_t, ptr %80, i32 0, i32 7
  %82 = load i32, ptr %6, align 4, !tbaa !23
  call void @lv_bar_set_value_with_anim(ptr noundef %76, i32 noundef %77, ptr noundef %79, ptr noundef %81, i32 noundef %82)
  store i32 0, ptr %8, align 4
  br label %83

83:                                               ; preds = %75, %74, %17
  call void @llvm.lifetime.end.p0(i64 8, ptr %7) #5
  %84 = load i32, ptr %8, align 4
  switch i32 %84, label %86 [
    i32 0, label %85
    i32 1, label %85
  ]

85:                                               ; preds = %83, %83
  ret void

86:                                               ; preds = %83
  unreachable
}

; Function Attrs: nounwind uwtable
define i32 @lv_bar_get_mode(ptr noundef %0) #0 {
  %2 = alloca ptr, align 8
  %3 = alloca ptr, align 8
  store ptr %0, ptr %2, align 8, !tbaa !3
  br label %4

4:                                                ; preds = %1
  br label %5

5:                                                ; preds = %4
  call void @llvm.lifetime.start.p0(i64 8, ptr %3) #5
  %6 = load ptr, ptr %2, align 8, !tbaa !3
  store ptr %6, ptr %3, align 8, !tbaa !3
  %7 = load ptr, ptr %3, align 8, !tbaa !3
  %8 = getelementptr inbounds nuw %struct._lv_bar_t, ptr %7, i32 0, i32 9
  %9 = load i8, ptr %8, align 8
  %10 = and i8 %9, 7
  %11 = zext i8 %10 to i32
  call void @llvm.lifetime.end.p0(i64 8, ptr %3) #5
  ret i32 %11
}

; Function Attrs: nounwind uwtable
define void @lv_bar_set_range(ptr noundef %0, i32 noundef %1, i32 noundef %2) #0 {
  %4 = alloca ptr, align 8
  %5 = alloca i32, align 4
  %6 = alloca i32, align 4
  %7 = alloca ptr, align 8
  %8 = alloca i32, align 4
  %9 = alloca i32, align 4
  %10 = alloca i32, align 4
  store ptr %0, ptr %4, align 8, !tbaa !3
  store i32 %1, ptr %5, align 4, !tbaa !23
  store i32 %2, ptr %6, align 4, !tbaa !23
  br label %11

11:                                               ; preds = %3
  br label %12

12:                                               ; preds = %11
  call void @llvm.lifetime.start.p0(i64 8, ptr %7) #5
  %13 = load ptr, ptr %4, align 8, !tbaa !3
  store ptr %13, ptr %7, align 8, !tbaa !3
  %14 = load i32, ptr %5, align 4, !tbaa !23
  %15 = load i32, ptr %6, align 4, !tbaa !23
  %16 = icmp sgt i32 %14, %15
  %17 = load ptr, ptr %7, align 8, !tbaa !3
  %18 = getelementptr inbounds nuw %struct._lv_bar_t, ptr %17, i32 0, i32 6
  %19 = zext i1 %16 to i8
  store i8 %19, ptr %18, align 8, !tbaa !22
  call void @llvm.lifetime.start.p0(i64 4, ptr %8) #5
  %20 = load ptr, ptr %7, align 8, !tbaa !3
  %21 = getelementptr inbounds nuw %struct._lv_bar_t, ptr %20, i32 0, i32 6
  %22 = load i8, ptr %21, align 8, !tbaa !22, !range !27, !noundef !28
  %23 = trunc i8 %22 to i1
  br i1 %23, label %24, label %26

24:                                               ; preds = %12
  %25 = load i32, ptr %6, align 4, !tbaa !23
  br label %28

26:                                               ; preds = %12
  %27 = load i32, ptr %5, align 4, !tbaa !23
  br label %28

28:                                               ; preds = %26, %24
  %29 = phi i32 [ %25, %24 ], [ %27, %26 ]
  store i32 %29, ptr %8, align 4, !tbaa !23
  call void @llvm.lifetime.start.p0(i64 4, ptr %9) #5
  %30 = load ptr, ptr %7, align 8, !tbaa !3
  %31 = getelementptr inbounds nuw %struct._lv_bar_t, ptr %30, i32 0, i32 6
  %32 = load i8, ptr %31, align 8, !tbaa !22, !range !27, !noundef !28
  %33 = trunc i8 %32 to i1
  br i1 %33, label %34, label %36

34:                                               ; preds = %28
  %35 = load i32, ptr %5, align 4, !tbaa !23
  br label %38

36:                                               ; preds = %28
  %37 = load i32, ptr %6, align 4, !tbaa !23
  br label %38

38:                                               ; preds = %36, %34
  %39 = phi i32 [ %35, %34 ], [ %37, %36 ]
  store i32 %39, ptr %9, align 4, !tbaa !23
  %40 = load ptr, ptr %7, align 8, !tbaa !3
  %41 = getelementptr inbounds nuw %struct._lv_bar_t, ptr %40, i32 0, i32 2
  %42 = load i32, ptr %41, align 4, !tbaa !7
  %43 = load i32, ptr %8, align 4, !tbaa !23
  %44 = icmp eq i32 %42, %43
  br i1 %44, label %45, label %52

45:                                               ; preds = %38
  %46 = load ptr, ptr %7, align 8, !tbaa !3
  %47 = getelementptr inbounds nuw %struct._lv_bar_t, ptr %46, i32 0, i32 3
  %48 = load i32, ptr %47, align 8, !tbaa !15
  %49 = load i32, ptr %9, align 4, !tbaa !23
  %50 = icmp eq i32 %48, %49
  br i1 %50, label %51, label %52

51:                                               ; preds = %45
  store i32 1, ptr %10, align 4
  br label %96

52:                                               ; preds = %45, %38
  %53 = load i32, ptr %9, align 4, !tbaa !23
  %54 = load ptr, ptr %7, align 8, !tbaa !3
  %55 = getelementptr inbounds nuw %struct._lv_bar_t, ptr %54, i32 0, i32 3
  store i32 %53, ptr %55, align 8, !tbaa !15
  %56 = load i32, ptr %8, align 4, !tbaa !23
  %57 = load ptr, ptr %7, align 8, !tbaa !3
  %58 = getelementptr inbounds nuw %struct._lv_bar_t, ptr %57, i32 0, i32 2
  store i32 %56, ptr %58, align 4, !tbaa !7
  %59 = load ptr, ptr %4, align 8, !tbaa !3
  %60 = call i32 @lv_bar_get_mode(ptr noundef %59)
  %61 = icmp ne i32 %60, 2
  br i1 %61, label %62, label %66

62:                                               ; preds = %52
  %63 = load i32, ptr %8, align 4, !tbaa !23
  %64 = load ptr, ptr %7, align 8, !tbaa !3
  %65 = getelementptr inbounds nuw %struct._lv_bar_t, ptr %64, i32 0, i32 4
  store i32 %63, ptr %65, align 4, !tbaa !16
  br label %66

66:                                               ; preds = %62, %52
  %67 = load ptr, ptr %7, align 8, !tbaa !3
  %68 = getelementptr inbounds nuw %struct._lv_bar_t, ptr %67, i32 0, i32 1
  %69 = load i32, ptr %68, align 8, !tbaa !17
  %70 = load i32, ptr %9, align 4, !tbaa !23
  %71 = icmp sgt i32 %69, %70
  br i1 %71, label %72, label %80

72:                                               ; preds = %66
  %73 = load i32, ptr %9, align 4, !tbaa !23
  %74 = load ptr, ptr %7, align 8, !tbaa !3
  %75 = getelementptr inbounds nuw %struct._lv_bar_t, ptr %74, i32 0, i32 1
  store i32 %73, ptr %75, align 8, !tbaa !17
  %76 = load ptr, ptr %4, align 8, !tbaa !3
  %77 = load ptr, ptr %7, align 8, !tbaa !3
  %78 = getelementptr inbounds nuw %struct._lv_bar_t, ptr %77, i32 0, i32 1
  %79 = load i32, ptr %78, align 8, !tbaa !17
  call void @lv_bar_set_value(ptr noundef %76, i32 noundef %79, i32 noundef 0)
  br label %80

80:                                               ; preds = %72, %66
  %81 = load ptr, ptr %7, align 8, !tbaa !3
  %82 = getelementptr inbounds nuw %struct._lv_bar_t, ptr %81, i32 0, i32 1
  %83 = load i32, ptr %82, align 8, !tbaa !17
  %84 = load i32, ptr %8, align 4, !tbaa !23
  %85 = icmp slt i32 %83, %84
  br i1 %85, label %86, label %94

86:                                               ; preds = %80
  %87 = load i32, ptr %8, align 4, !tbaa !23
  %88 = load ptr, ptr %7, align 8, !tbaa !3
  %89 = getelementptr inbounds nuw %struct._lv_bar_t, ptr %88, i32 0, i32 1
  store i32 %87, ptr %89, align 8, !tbaa !17
  %90 = load ptr, ptr %4, align 8, !tbaa !3
  %91 = load ptr, ptr %7, align 8, !tbaa !3
  %92 = getelementptr inbounds nuw %struct._lv_bar_t, ptr %91, i32 0, i32 1
  %93 = load i32, ptr %92, align 8, !tbaa !17
  call void @lv_bar_set_value(ptr noundef %90, i32 noundef %93, i32 noundef 0)
  br label %94

94:                                               ; preds = %86, %80
  %95 = load ptr, ptr %4, align 8, !tbaa !3
  call void @lv_obj_invalidate(ptr noundef %95)
  store i32 0, ptr %10, align 4
  br label %96

96:                                               ; preds = %94, %51
  call void @llvm.lifetime.end.p0(i64 4, ptr %9) #5
  call void @llvm.lifetime.end.p0(i64 4, ptr %8) #5
  call void @llvm.lifetime.end.p0(i64 8, ptr %7) #5
  %97 = load i32, ptr %10, align 4
  switch i32 %97, label %99 [
    i32 0, label %98
    i32 1, label %98
  ]

98:                                               ; preds = %96, %96
  ret void

99:                                               ; preds = %96
  unreachable
}