; Function Attrs: nounwind uwtable
define void @lv_bar_set_range(ptr noundef %0, i32 noundef %1, i32 noundef %2) local_unnamed_addr #0 {
  %4 = icmp sgt i32 %1, %2
  %5 = getelementptr inbounds nuw i8, ptr %0, i64 96
  %6 = zext i1 %4 to i8
  store i8 %6, ptr %5, align 8, !tbaa !16
  %7 = tail call i32 @llvm.smin.i32(i32 %1, i32 %2)
  %8 = tail call i32 @llvm.smax.i32(i32 %1, i32 %2)
  %9 = getelementptr inbounds nuw i8, ptr %0, i64 68
  %10 = load i32, ptr %9, align 4, !tbaa !3
  %11 = icmp eq i32 %10, %7
  br i1 %11, label %12, label %16

12:                                               ; preds = %3
  %13 = getelementptr inbounds nuw i8, ptr %0, i64 72
  %14 = load i32, ptr %13, align 8, !tbaa !14
  %15 = icmp eq i32 %14, %8
  br i1 %15, label %30, label %16

16:                                               ; preds = %12, %3
  %17 = getelementptr inbounds nuw i8, ptr %0, i64 72
  store i32 %8, ptr %17, align 8, !tbaa !14
  store i32 %7, ptr %9, align 4, !tbaa !3
  %18 = getelementptr inbounds nuw i8, ptr %0, i64 152
  %19 = load i8, ptr %18, align 8
  %20 = and i8 %19, 7
  %.not = icmp eq i8 %20, 2
  br i1 %.not, label %23, label %21

21:                                               ; preds = %16
  %22 = getelementptr inbounds nuw i8, ptr %0, i64 76
  store i32 %7, ptr %22, align 4, !tbaa !21
  br label %23

23:                                               ; preds = %21, %16
  %24 = getelementptr inbounds nuw i8, ptr %0, i64 64
  %25 = load i32, ptr %24, align 8, !tbaa !15
  %26 = icmp sgt i32 %25, %8
  br i1 %26, label %.sink.split, label %27

27:                                               ; preds = %23
  %28 = icmp slt i32 %25, %7
  br i1 %28, label %.sink.split, label %29

.sink.split:                                      ; preds = %27, %23
  %.sink = phi i32 [ %8, %23 ], [ %7, %27 ]
  store i32 %.sink, ptr %24, align 8, !tbaa !15
  br label %29

29:                                               ; preds = %.sink.split, %27
  tail call void @lv_obj_invalidate(ptr noundef nonnull %0) #7
  br label %30

30:                                               ; preds = %12, %29
  ret void
}